; Function Attrs: mustprogress uwtable
define hidden void @_ZN2cv11xfeatures2d33HarrisLaplaceFeatureDetector_ImplC1Eiffii(ptr noundef nonnull align 8 dereferenceable(32) %0, i32 noundef %1, float noundef %2, float noundef %3, i32 noundef %4, i32 noundef %5) unnamed_addr #0 align 2 personality ptr @__gxx_personality_v0 {
  %7 = alloca %"class.std::__cxx11::basic_string", align 8
  %8 = alloca %"class.std::allocator", align 1
  tail call void @_ZN2cv9AlgorithmC2Ev(ptr noundef nonnull align 8 dereferenceable(8) %0)
  store ptr getelementptr inbounds nuw inrange(-80, 208) (i8, ptr @_ZTVN2cv11xfeatures2d33HarrisLaplaceFeatureDetector_ImplE, i64 80), ptr %0, align 8, !tbaa !14
  %9 = getelementptr inbounds nuw i8, ptr %0, i64 8
  store i32 %1, ptr %9, align 8, !tbaa !34
  %10 = getelementptr inbounds nuw i8, ptr %0, i64 12
  store float %2, ptr %10, align 4, !tbaa !39
  %11 = getelementptr inbounds nuw i8, ptr %0, i64 16
  store float %3, ptr %11, align 8, !tbaa !40
  %12 = getelementptr inbounds nuw i8, ptr %0, i64 20
  store i32 %4, ptr %12, align 4, !tbaa !41
  %13 = getelementptr inbounds nuw i8, ptr %0, i64 24
  store i32 %5, ptr %13, align 8, !tbaa !42
  switch i32 %5, label %14 [
    i32 2, label %27
    i32 4, label %27
  ]

14:                                               ; preds = %6
  call void @llvm.lifetime.start.p0(i64 32, ptr nonnull %7) #26
  call void @llvm.lifetime.start.p0(i64 1, ptr nonnull %8) #26
  invoke void @_ZNSt7__cxx1112basic_stringIcSt11char_traitsIcESaIcEEC2EPKcRKS3_(ptr noundef nonnull align 8 dereferenceable(32) %7, ptr noundef nonnull @.str.1, ptr noundef nonnull align 1 dereferenceable(1) %8)
          to label %15 unwind label %17

15:                                               ; preds = %14
  invoke void @_ZN2cv5errorEiRKNSt7__cxx1112basic_stringIcSt11char_traitsIcESaIcEEEPKcS9_i(i32 noundef -215, ptr noundef nonnull align 8 dereferenceable(32) %7, ptr noundef nonnull @__func__._ZN2cv11xfeatures2d33HarrisLaplaceFeatureDetector_ImplC2Eiffii, ptr noundef nonnull @.str.2, i32 noundef 384) #27
          to label %16 unwind label %19

16:                                               ; preds = %15
  unreachable

17:                                               ; preds = %14
  %18 = landingpad { ptr, i32 }
          cleanup
  br label %_ZNSt7__cxx1112basic_stringIcSt11char_traitsIcESaIcEED2Ev.exit

19:                                               ; preds = %15
  %20 = landingpad { ptr, i32 }
          cleanup
  %21 = load ptr, ptr %7, align 8, !tbaa !32
  %22 = getelementptr inbounds nuw i8, ptr %7, i64 16
  %23 = icmp eq ptr %21, %22
  br i1 %23, label %_ZNKSt7__cxx1112basic_stringIcSt11char_traitsIcESaIcEE11_M_is_localEv.exit.thread.i.i, label %_ZNKSt7__cxx1112basic_stringIcSt11char_traitsIcESaIcEE11_M_is_localEv.exit.i.i

_ZNKSt7__cxx1112basic_stringIcSt11char_traitsIcESaIcEE11_M_is_localEv.exit.thread.i.i: ; preds = %19
  %24 = getelementptr inbounds nuw i8, ptr %7, i64 8
  %25 = load i64, ptr %24, align 8, !tbaa !26
  %26 = icmp ult i64 %25, 16
  call void @llvm.assume(i1 %26)
  br label %_ZNSt7__cxx1112basic_stringIcSt11char_traitsIcESaIcEED2Ev.exit

_ZNKSt7__cxx1112basic_stringIcSt11char_traitsIcESaIcEE11_M_is_localEv.exit.i.i: ; preds = %19
  call void @_ZdlPv(ptr noundef %21) #25
  br label %_ZNSt7__cxx1112basic_stringIcSt11char_traitsIcESaIcEED2Ev.exit

_ZNSt7__cxx1112basic_stringIcSt11char_traitsIcESaIcEED2Ev.exit: ; preds = %_ZNKSt7__cxx1112basic_stringIcSt11char_traitsIcESaIcEE11_M_is_localEv.exit.i.i, %_ZNKSt7__cxx1112basic_stringIcSt11char_traitsIcESaIcEE11_M_is_localEv.exit.thread.i.i, %17
  %.pn = phi { ptr, i32 } [ %18, %17 ], [ %20, %_ZNKSt7__cxx1112basic_stringIcSt11char_traitsIcESaIcEE11_M_is_localEv.exit.thread.i.i ], [ %20, %_ZNKSt7__cxx1112basic_stringIcSt11char_traitsIcESaIcEE11_M_is_localEv.exit.i.i ]
  call void @llvm.lifetime.end.p0(i64 1, ptr nonnull %8) #26
  call void @llvm.lifetime.end.p0(i64 32, ptr nonnull %7) #26
  call void @_ZN2cv9Feature2DD2Ev(ptr noundef nonnull align 8 dereferenceable(8) %0, ptr noundef nonnull getelementptr inbounds nuw (i8, ptr @_ZTTN2cv11xfeatures2d33HarrisLaplaceFeatureDetector_ImplE, i64 16)) #26
  call void @_ZN2cv9AlgorithmD2Ev(ptr noundef nonnull align 8 dereferenceable(8) %0) #26
  resume { ptr, i32 } %.pn

27:                                               ; preds = %6, %6
  ret void
}